target datalayout = "e-m:e-p270:32:32-p271:32:32-p272:64:64-i64:64-i128:128-f80:128-n8:16:32:64-S128"
target triple = "x86_64-pc-linux-gnu"

; Function Attrs: nounwind uwtable
define internal void @_add_wrapped_box(ptr noundef %0, ptr noundef %1, ptr noundef %2) #0 {
  %4 = alloca ptr, align 8
  %5 = alloca ptr, align 8
  %6 = alloca ptr, align 8
  %7 = alloca ptr, align 8
  %8 = alloca ptr, align 8
  store ptr %0, ptr %4, align 8, !tbaa !11
  store ptr %1, ptr %5, align 8, !tbaa !169
  store ptr %2, ptr %6, align 8, !tbaa !141
  call void @llvm.lifetime.start.p0(i64 8, ptr %7) #11
  %9 = call ptr @gtk_event_box_new()
  store ptr %9, ptr %7, align 8, !tbaa !11
  call void @llvm.lifetime.start.p0(i64 8, ptr %8) #11
  %10 = call ptr @gtk_revealer_new()
  store ptr %10, ptr %8, align 8, !tbaa !11
  %11 = load ptr, ptr %8, align 8, !tbaa !11
  %12 = call i64 @gtk_container_get_type() #12
  %13 = call ptr @g_type_check_instance_cast(ptr noundef %11, i64 noundef %12)
  %14 = load ptr, ptr %5, align 8, !tbaa !169
  %15 = call i64 @gtk_widget_get_type() #12
  %16 = call ptr @g_type_check_instance_cast(ptr noundef %14, i64 noundef %15)
  call void @gtk_container_add(ptr noundef %13, ptr noundef %16)
  %17 = load ptr, ptr %7, align 8, !tbaa !11
  %18 = call i64 @gtk_container_get_type() #12
  %19 = call ptr @g_type_check_instance_cast(ptr noundef %17, i64 noundef %18)
  %20 = load ptr, ptr %8, align 8, !tbaa !11
  call void @gtk_container_add(ptr noundef %19, ptr noundef %20)
  %21 = load ptr, ptr %4, align 8, !tbaa !11
  %22 = call i64 @gtk_container_get_type() #12
  %23 = call ptr @g_type_check_instance_cast(ptr noundef %21, i64 noundef %22)
  %24 = load ptr, ptr %7, align 8, !tbaa !11
  call void @gtk_container_add(ptr noundef %23, ptr noundef %24)
  %25 = load ptr, ptr %7, align 8, !tbaa !11
  %26 = load ptr, ptr %6, align 8, !tbaa !141
  call void @dt_gui_add_help_link(ptr noundef %25, ptr noundef %26)
  call void @llvm.lifetime.end.p0(i64 8, ptr %8) #11
  call void @llvm.lifetime.end.p0(i64 8, ptr %7) #11
  ret void
}