; Function Attrs: nounwind uwtable
define internal fastcc void @_add_wrapped_box(ptr noundef %0, ptr noundef %1, ptr noundef %2) unnamed_addr #0 {
  %4 = tail call ptr @gtk_event_box_new() #18
  %5 = tail call ptr @gtk_revealer_new() #18
  %6 = tail call i64 @gtk_container_get_type() #19
  %7 = tail call ptr @g_type_check_instance_cast(ptr noundef %5, i64 noundef %6) #18
  %8 = tail call i64 @gtk_widget_get_type() #19
  %9 = tail call ptr @g_type_check_instance_cast(ptr noundef %1, i64 noundef %8) #18
  tail call void @gtk_container_add(ptr noundef %7, ptr noundef %9) #18
  %10 = tail call ptr @g_type_check_instance_cast(ptr noundef %4, i64 noundef %6) #18
  tail call void @gtk_container_add(ptr noundef %10, ptr noundef %5) #18
  %11 = tail call ptr @g_type_check_instance_cast(ptr noundef %0, i64 noundef %6) #18
  tail call void @gtk_container_add(ptr noundef %11, ptr noundef %4) #18
  tail call void @dt_gui_add_help_link(ptr noundef %4, ptr noundef %2) #18
  ret void
}